; Function Attrs: nounwind uwtable
define range(i32 0, 2) i32 @ossl_rsa_check_public_exponent(ptr noundef %0) local_unnamed_addr #0 {
  %2 = tail call i32 @BN_is_odd(ptr noundef %0) #3
  %.not = icmp eq i32 %2, 0
  br i1 %.not, label %8, label %3

3:                                                ; preds = %1
  %4 = tail call ptr @BN_value_one() #3
  %5 = tail call i32 @BN_cmp(ptr noundef %0, ptr noundef %4) #3
  %6 = icmp sgt i32 %5, 0
  %7 = zext i1 %6 to i32
  br label %8

8:                                                ; preds = %3, %1
  %9 = phi i32 [ 0, %1 ], [ %7, %3 ]
  ret i32 %9
}